; Function Attrs: mustprogress uwtable
define internal void @_ZN2cvL8reduceR_IttNS_5OpMaxItEENS_5OpNopItttEEEEvRKNS_3MatERS5_(ptr noundef nonnull align 8 dereferenceable(96) %0, ptr noundef nonnull align 8 dereferenceable(96) %1) unnamed_addr #1 personality ptr @__gxx_personality_v0 {
  %3 = alloca %"struct.cv::OpMax.21", align 1
  %4 = alloca %"struct.cv::OpNop.22", align 1
  %5 = alloca %"class.cv::ReduceR_Invoker.23", align 8
  %6 = alloca %"class.cv::Range", align 4
  call void @llvm.lifetime.start.p0(i64 1, ptr nonnull %3) #17
  call void @llvm.lifetime.start.p0(i64 1, ptr nonnull %4) #17
  call void @llvm.lifetime.start.p0(i64 1096, ptr nonnull %5) #17
  store ptr getelementptr inbounds nuw inrange(-16, 24) (i8, ptr @_ZTVN2cv15ReduceR_InvokerItttNS_5OpMaxItEENS_5OpNopItttEEEE, i64 16), ptr %5, align 8, !tbaa !109
  %7 = getelementptr inbounds nuw i8, ptr %5, i64 8
  store ptr %0, ptr %7, align 8, !tbaa !57
  %8 = getelementptr inbounds nuw i8, ptr %5, i64 16
  store ptr %1, ptr %8, align 8, !tbaa !57
  %9 = getelementptr inbounds nuw i8, ptr %5, i64 24
  store ptr %3, ptr %9, align 8, !tbaa !144
  %10 = getelementptr inbounds nuw i8, ptr %5, i64 32
  store ptr %4, ptr %10, align 8, !tbaa !146
  %11 = getelementptr inbounds nuw i8, ptr %0, i64 64
  %12 = load ptr, ptr %11, align 8, !tbaa !102
  %13 = getelementptr inbounds nuw i8, ptr %12, i64 4
  %14 = load i32, ptr %13, align 4, !tbaa !3
  %15 = getelementptr inbounds nuw i8, ptr %5, i64 40
  %16 = load i32, ptr %0, align 8, !tbaa !27
  %17 = lshr i32 %16, 3
  %18 = and i32 %17, 511
  %19 = add nuw nsw i32 %18, 1
  %20 = mul nsw i32 %19, %14
  %21 = sext i32 %20 to i64
  %22 = getelementptr inbounds nuw i8, ptr %5, i64 56
  store ptr %22, ptr %15, align 8, !tbaa !148
  %23 = getelementptr inbounds nuw i8, ptr %5, i64 48
  %.not.i.i.i = icmp ugt i32 %20, 520
  store i64 %21, ptr %23, align 8, !tbaa !151
  br i1 %.not.i.i.i, label %24, label %30

24:                                               ; preds = %2
  %25 = shl nuw nsw i64 %21, 1
  %.inv.i.i.i = icmp sgt i32 %20, -1
  %26 = select i1 %.inv.i.i.i, i64 %25, i64 -1
  %27 = invoke noalias noundef nonnull ptr @_Znam(i64 noundef %26) #21
          to label %.noexc.i unwind label %28

.noexc.i:                                         ; preds = %24
  store ptr %27, ptr %15, align 8, !tbaa !148
  br label %30

common.resume:                                    ; preds = %45, %28
  %common.resume.op = phi { ptr, i32 } [ %29, %28 ], [ %46, %45 ]
  resume { ptr, i32 } %common.resume.op

28:                                               ; preds = %24
  %29 = landingpad { ptr, i32 }
          cleanup
  call void @_ZN2cv16ParallelLoopBodyD2Ev(ptr noundef nonnull align 8 dereferenceable(1096) %5) #17
  br label %common.resume

30:                                               ; preds = %2, %.noexc.i
  call void @llvm.lifetime.start.p0(i64 8, ptr nonnull %6) #17
  store i32 0, ptr %6, align 4, !tbaa !118
  %31 = getelementptr inbounds nuw i8, ptr %6, i64 4
  store i32 %20, ptr %31, align 4, !tbaa !120
  %32 = shl i32 %16, 2
  %33 = and i32 %32, 28
  %34 = lshr i32 675553809, %33
  %35 = and i32 %34, 15
  %36 = mul nsw i32 %14, %35
  %37 = sdiv i32 %36, 64
  %38 = sitofp i32 %37 to double
  invoke void @_ZN2cv13parallel_for_ERKNS_5RangeERKNS_16ParallelLoopBodyEd(ptr noundef nonnull align 4 dereferenceable(8) %6, ptr noundef nonnull align 8 dereferenceable(8) %5, double noundef %38)
          to label %39 unwind label %45

39:                                               ; preds = %30
  call void @llvm.lifetime.end.p0(i64 8, ptr nonnull %6) #17
  store ptr getelementptr inbounds nuw inrange(-16, 24) (i8, ptr @_ZTVN2cv15ReduceR_InvokerItttNS_5OpMaxItEENS_5OpNopItttEEEE, i64 16), ptr %5, align 8, !tbaa !109
  %40 = load ptr, ptr %15, align 8, !tbaa !148
  %.not.i.i.i16 = icmp eq ptr %40, %22
  br i1 %.not.i.i.i16, label %_ZN2cv15ReduceR_InvokerItttNS_5OpMaxItEENS_5OpNopItttEEED2Ev.exit, label %41

41:                                               ; preds = %39
  %42 = icmp eq ptr %40, null
  br i1 %42, label %44, label %43

43:                                               ; preds = %41
  call void @_ZdaPv(ptr noundef nonnull %40) #19
  br label %44

44:                                               ; preds = %43, %41
  store ptr %22, ptr %15, align 8, !tbaa !148
  store i64 520, ptr %23, align 8, !tbaa !151
  br label %_ZN2cv15ReduceR_InvokerItttNS_5OpMaxItEENS_5OpNopItttEEED2Ev.exit

_ZN2cv15ReduceR_InvokerItttNS_5OpMaxItEENS_5OpNopItttEEED2Ev.exit: ; preds = %39, %44
  call void @_ZN2cv16ParallelLoopBodyD2Ev(ptr noundef nonnull align 8 dereferenceable(1096) %5) #17
  call void @llvm.lifetime.end.p0(i64 1096, ptr nonnull %5) #17
  call void @llvm.lifetime.end.p0(i64 1, ptr nonnull %4) #17
  call void @llvm.lifetime.end.p0(i64 1, ptr nonnull %3) #17
  ret void

45:                                               ; preds = %30
  %46 = landingpad { ptr, i32 }
          cleanup
  call void @llvm.lifetime.end.p0(i64 8, ptr nonnull %6) #17
  call void @_ZN2cv15ReduceR_InvokerItttNS_5OpMaxItEENS_5OpNopItttEEED2Ev(ptr noundef nonnull align 8 dereferenceable(1096) %5) #17
  call void @llvm.lifetime.end.p0(i64 1096, ptr nonnull %5) #17
  call void @llvm.lifetime.end.p0(i64 1, ptr nonnull %4) #17
  call void @llvm.lifetime.end.p0(i64 1, ptr nonnull %3) #17
  br label %common.resume
}